target datalayout = "e-m:e-p270:32:32-p271:32:32-p272:64:64-i64:64-i128:128-f80:128-n8:16:32:64-S128"
target triple = "x86_64-pc-linux-gnu"

%struct.Curl_addrinfo = type { i32, i32, i32, i32, i32, ptr, ptr, ptr }
%struct.sockaddr_un = type { i16, [108 x i8] }

@Curl_cfree = external global ptr, align 8
@Curl_ccalloc = external global ptr, align 8

; Function Attrs: nounwind uwtable
define hidden ptr @Curl_unix2addr(ptr noundef %0, ptr noundef %1, i1 noundef zeroext %2) #0 {
  %4 = alloca ptr, align 8
  %5 = alloca ptr, align 8
  %6 = alloca ptr, align 8
  %7 = alloca i8, align 1
  %8 = alloca ptr, align 8
  %9 = alloca ptr, align 8
  %10 = alloca i64, align 8
  %11 = alloca i32, align 4
  store ptr %0, ptr %5, align 8, !tbaa !16
  store ptr %1, ptr %6, align 8, !tbaa !55
  %12 = zext i1 %2 to i8
  store i8 %12, ptr %7, align 1, !tbaa !57
  call void @llvm.lifetime.start.p0(i64 8, ptr %8) #7
  call void @llvm.lifetime.start.p0(i64 8, ptr %9) #7
  call void @llvm.lifetime.start.p0(i64 8, ptr %10) #7
  %13 = load ptr, ptr %6, align 8, !tbaa !55
  store i8 0, ptr %13, align 1, !tbaa !57
  %14 = load ptr, ptr @Curl_ccalloc, align 8, !tbaa !13
  %15 = call ptr %14(i64 noundef 1, i64 noundef 158)
  store ptr %15, ptr %8, align 8, !tbaa !3
  %16 = load ptr, ptr %8, align 8, !tbaa !3
  %17 = icmp ne ptr %16, null
  br i1 %17, label %19, label %18

18:                                               ; preds = %3
  store ptr null, ptr %4, align 8
  store i32 1, ptr %11, align 4
  br label %67

19:                                               ; preds = %3
  %20 = load ptr, ptr %8, align 8, !tbaa !3
  %21 = getelementptr inbounds nuw i8, ptr %20, i64 48
  %22 = load ptr, ptr %8, align 8, !tbaa !3
  %23 = getelementptr inbounds nuw %struct.Curl_addrinfo, ptr %22, i32 0, i32 6
  store ptr %21, ptr %23, align 8, !tbaa !37
  %24 = load ptr, ptr %8, align 8, !tbaa !3
  %25 = getelementptr inbounds nuw %struct.Curl_addrinfo, ptr %24, i32 0, i32 6
  %26 = load ptr, ptr %25, align 8, !tbaa !37
  store ptr %26, ptr %9, align 8, !tbaa !59
  %27 = load ptr, ptr %9, align 8, !tbaa !59
  %28 = getelementptr inbounds nuw %struct.sockaddr_un, ptr %27, i32 0, i32 0
  store i16 1, ptr %28, align 2, !tbaa !61
  %29 = load ptr, ptr %5, align 8, !tbaa !16
  %30 = call i64 @strlen(ptr noundef %29) #8
  %31 = add i64 %30, 1
  store i64 %31, ptr %10, align 8, !tbaa !24
  %32 = load i64, ptr %10, align 8, !tbaa !24
  %33 = icmp ugt i64 %32, 108
  br i1 %33, label %34, label %38

34:                                               ; preds = %19
  %35 = load ptr, ptr @Curl_cfree, align 8, !tbaa !13
  %36 = load ptr, ptr %8, align 8, !tbaa !3
  call void %35(ptr noundef %36)
  %37 = load ptr, ptr %6, align 8, !tbaa !55
  store i8 1, ptr %37, align 1, !tbaa !57
  store ptr null, ptr %4, align 8
  store i32 1, ptr %11, align 4
  br label %67

38:                                               ; preds = %19
  %39 = load ptr, ptr %8, align 8, !tbaa !3
  %40 = getelementptr inbounds nuw %struct.Curl_addrinfo, ptr %39, i32 0, i32 1
  store i32 1, ptr %40, align 4, !tbaa !31
  %41 = load ptr, ptr %8, align 8, !tbaa !3
  %42 = getelementptr inbounds nuw %struct.Curl_addrinfo, ptr %41, i32 0, i32 2
  store i32 1, ptr %42, align 8, !tbaa !33
  %43 = load i64, ptr %10, align 8, !tbaa !24
  %44 = add i64 2, %43
  %45 = and i64 %44, 2147483647
  %46 = trunc i64 %45 to i32
  %47 = load ptr, ptr %8, align 8, !tbaa !3
  %48 = getelementptr inbounds nuw %struct.Curl_addrinfo, ptr %47, i32 0, i32 4
  store i32 %46, ptr %48, align 8, !tbaa !36
  %49 = load i8, ptr %7, align 1, !tbaa !57, !range !63, !noundef !64
  %50 = trunc i8 %49 to i1
  br i1 %50, label %51, label %59

51:                                               ; preds = %38
  %52 = load ptr, ptr %9, align 8, !tbaa !59
  %53 = getelementptr inbounds nuw %struct.sockaddr_un, ptr %52, i32 0, i32 1
  %54 = getelementptr inbounds [108 x i8], ptr %53, i64 0, i64 0
  %55 = getelementptr inbounds i8, ptr %54, i64 1
  %56 = load ptr, ptr %5, align 8, !tbaa !16
  %57 = load i64, ptr %10, align 8, !tbaa !24
  %58 = sub i64 %57, 1
  call void @llvm.memcpy.p0.p0.i64(ptr align 1 %55, ptr align 1 %56, i64 %58, i1 false)
  br label %65

59:                                               ; preds = %38
  %60 = load ptr, ptr %9, align 8, !tbaa !59
  %61 = getelementptr inbounds nuw %struct.sockaddr_un, ptr %60, i32 0, i32 1
  %62 = getelementptr inbounds [108 x i8], ptr %61, i64 0, i64 0
  %63 = load ptr, ptr %5, align 8, !tbaa !16
  %64 = load i64, ptr %10, align 8, !tbaa !24
  call void @llvm.memcpy.p0.p0.i64(ptr align 2 %62, ptr align 1 %63, i64 %64, i1 false)
  br label %65

65:                                               ; preds = %59, %51
  %66 = load ptr, ptr %8, align 8, !tbaa !3
  store ptr %66, ptr %4, align 8
  store i32 1, ptr %11, align 4
  br label %67

67:                                               ; preds = %65, %34, %18
  call void @llvm.lifetime.end.p0(i64 8, ptr %10) #7
  call void @llvm.lifetime.end.p0(i64 8, ptr %9) #7
  call void @llvm.lifetime.end.p0(i64 8, ptr %8) #7
  %68 = load ptr, ptr %4, align 8
  ret ptr %68
}