; Function Attrs: nounwind uwtable
define hidden ptr @Curl_unix2addr(ptr noundef readonly captures(none) %0, ptr noundef writeonly captures(none) initializes((0, 1)) %1, i1 noundef zeroext %2) local_unnamed_addr #0 {
  store i8 0, ptr %1, align 1, !tbaa !36
  %4 = load ptr, ptr @Curl_ccalloc, align 8, !tbaa !12
  %5 = tail call ptr %4(i64 noundef 1, i64 noundef 158) #8
  %.not = icmp eq ptr %5, null
  br i1 %.not, label %24, label %6

6:                                                ; preds = %3
  %7 = getelementptr inbounds nuw i8, ptr %5, i64 48
  %8 = getelementptr inbounds nuw i8, ptr %5, i64 32
  store ptr %7, ptr %8, align 8, !tbaa !31
  store i16 1, ptr %7, align 2, !tbaa !38
  %9 = tail call i64 @strlen(ptr noundef nonnull dereferenceable(1) %0) #9
  %10 = add i64 %9, 1
  %11 = icmp ugt i64 %10, 108
  br i1 %11, label %12, label %14

12:                                               ; preds = %6
  %13 = load ptr, ptr @Curl_cfree, align 8, !tbaa !12
  tail call void %13(ptr noundef nonnull %5) #8
  store i8 1, ptr %1, align 1, !tbaa !36
  br label %24

14:                                               ; preds = %6
  %15 = getelementptr inbounds nuw i8, ptr %5, i64 4
  store i32 1, ptr %15, align 4, !tbaa !25
  %16 = getelementptr inbounds nuw i8, ptr %5, i64 8
  store i32 1, ptr %16, align 8, !tbaa !27
  %17 = trunc i64 %9 to i32
  %18 = add nsw i32 %17, 3
  %19 = getelementptr inbounds nuw i8, ptr %5, i64 16
  store i32 %18, ptr %19, align 8, !tbaa !30
  br i1 %2, label %20, label %22

20:                                               ; preds = %14
  %21 = getelementptr inbounds nuw i8, ptr %5, i64 51
  tail call void @llvm.memcpy.p0.p0.i64(ptr nonnull align 1 %21, ptr nonnull align 1 %0, i64 %9, i1 false)
  br label %24

22:                                               ; preds = %14
  %23 = getelementptr inbounds nuw i8, ptr %5, i64 50
  tail call void @llvm.memcpy.p0.p0.i64(ptr nonnull align 2 %23, ptr nonnull align 1 %0, i64 %10, i1 false)
  br label %24

24:                                               ; preds = %20, %22, %3, %12
  %.0 = phi ptr [ null, %12 ], [ null, %3 ], [ %5, %22 ], [ %5, %20 ]
  ret ptr %.0
}